target datalayout = "e-m:e-p270:32:32-p271:32:32-p272:64:64-i64:64-i128:128-f80:128-n8:16:32:64-S128"
target triple = "x86_64-pc-linux-gnu"

%struct.nk_rect = type { float, float, float, float }
%struct.nk_vec2 = type { float, float }
%struct.nk_allocator = type { %union.nk_handle, ptr, ptr }
%union.nk_handle = type { ptr }
%struct.nk_buffer = type { [2 x %struct.nk_buffer_marker], %struct.nk_allocator, i32, %struct.nk_memory, float, i64, i64, i64, i64 }
%struct.nk_buffer_marker = type { i32, i64 }
%struct.nk_memory = type { ptr, i64 }
%struct.nk_draw_list = type { %struct.nk_rect, [12 x %struct.nk_vec2], %struct.nk_convert_config, ptr, ptr, ptr, i32, i32, i32, i64, i32, i32, i32, i32 }
%struct.nk_convert_config = type { float, i32, i32, i32, i32, i32, %struct.nk_draw_null_texture, ptr, i64, i64 }
%struct.nk_draw_null_texture = type { %union.nk_handle, %struct.nk_vec2 }
%struct.nk_draw_command = type { i32, %struct.nk_rect, %union.nk_handle }

; Function Attrs: nounwind uwtable
define ptr @nk__draw_list_end(ptr noundef %0, ptr noundef %1) #0 {
  %3 = alloca ptr, align 8
  %4 = alloca ptr, align 8
  %5 = alloca ptr, align 8
  %6 = alloca i64, align 8
  %7 = alloca i64, align 8
  %8 = alloca ptr, align 8
  %9 = alloca ptr, align 8
  %10 = alloca i32, align 4
  store ptr %0, ptr %4, align 8, !tbaa !306
  store ptr %1, ptr %5, align 8, !tbaa !68
  call void @llvm.lifetime.start.p0(i64 8, ptr %6) #10
  call void @llvm.lifetime.start.p0(i64 8, ptr %7) #10
  call void @llvm.lifetime.start.p0(i64 8, ptr %8) #10
  call void @llvm.lifetime.start.p0(i64 8, ptr %9) #10
  %11 = load ptr, ptr %5, align 8, !tbaa !68
  %12 = icmp ne ptr %11, null
  br i1 %12, label %13, label %16

13:                                               ; preds = %2
  %14 = load ptr, ptr %4, align 8, !tbaa !306
  %15 = icmp ne ptr %14, null
  br i1 %15, label %17, label %16

16:                                               ; preds = %13, %2
  store ptr null, ptr %3, align 8
  store i32 1, ptr %10, align 4
  br label %43

17:                                               ; preds = %13
  %18 = load ptr, ptr %5, align 8, !tbaa !68
  %19 = getelementptr inbounds nuw %struct.nk_buffer, ptr %18, i32 0, i32 3
  %20 = getelementptr inbounds nuw %struct.nk_memory, ptr %19, i32 0, i32 0
  %21 = load ptr, ptr %20, align 8, !tbaa !80
  store ptr %21, ptr %8, align 8, !tbaa !26
  %22 = load ptr, ptr %5, align 8, !tbaa !68
  %23 = getelementptr inbounds nuw %struct.nk_buffer, ptr %22, i32 0, i32 3
  %24 = getelementptr inbounds nuw %struct.nk_memory, ptr %23, i32 0, i32 1
  %25 = load i64, ptr %24, align 8, !tbaa !81
  store i64 %25, ptr %6, align 8, !tbaa !73
  %26 = load i64, ptr %6, align 8, !tbaa !73
  %27 = load ptr, ptr %4, align 8, !tbaa !306
  %28 = getelementptr inbounds nuw %struct.nk_draw_list, ptr %27, i32 0, i32 9
  %29 = load i64, ptr %28, align 8, !tbaa !322
  %30 = sub i64 %26, %29
  store i64 %30, ptr %7, align 8, !tbaa !73
  %31 = load ptr, ptr %8, align 8, !tbaa !26
  %32 = load i64, ptr %7, align 8, !tbaa !73
  %33 = getelementptr inbounds nuw i8, ptr %31, i64 %32
  store ptr %33, ptr %9, align 8, !tbaa !327
  %34 = load ptr, ptr %4, align 8, !tbaa !306
  %35 = getelementptr inbounds nuw %struct.nk_draw_list, ptr %34, i32 0, i32 8
  %36 = load i32, ptr %35, align 8, !tbaa !325
  %37 = sub i32 %36, 1
  %38 = load ptr, ptr %9, align 8, !tbaa !327
  %39 = zext i32 %37 to i64
  %40 = sub i64 0, %39
  %41 = getelementptr inbounds %struct.nk_draw_command, ptr %38, i64 %40
  store ptr %41, ptr %9, align 8, !tbaa !327
  %42 = load ptr, ptr %9, align 8, !tbaa !327
  store ptr %42, ptr %3, align 8
  store i32 1, ptr %10, align 4
  br label %43

43:                                               ; preds = %17, %16
  call void @llvm.lifetime.end.p0(i64 8, ptr %9) #10
  call void @llvm.lifetime.end.p0(i64 8, ptr %8) #10
  call void @llvm.lifetime.end.p0(i64 8, ptr %7) #10
  call void @llvm.lifetime.end.p0(i64 8, ptr %6) #10
  %44 = load ptr, ptr %3, align 8
  ret ptr %44
}