; Function Attrs: mustprogress nofree norecurse nosync nounwind willreturn memory(argmem: read) uwtable
define ptr @nk__draw_list_end(ptr noundef readonly captures(address_is_null) %0, ptr noundef readonly captures(address_is_null) %1) local_unnamed_addr #12 {
  %3 = icmp ne ptr %1, null
  %4 = icmp ne ptr %0, null
  %or.cond = and i1 %4, %3
  br i1 %or.cond, label %5, label %20

5:                                                ; preds = %2
  %6 = getelementptr inbounds nuw i8, ptr %1, i64 64
  %7 = load ptr, ptr %6, align 8, !tbaa !41
  %8 = getelementptr inbounds nuw i8, ptr %1, i64 72
  %9 = load i64, ptr %8, align 8, !tbaa !42
  %10 = getelementptr inbounds nuw i8, ptr %0, i64 216
  %11 = load i64, ptr %10, align 8, !tbaa !242
  %12 = sub i64 %9, %11
  %13 = getelementptr inbounds nuw i8, ptr %7, i64 %12
  %14 = getelementptr inbounds nuw i8, ptr %0, i64 208
  %15 = load i32, ptr %14, align 8, !tbaa !243
  %16 = add i32 %15, -1
  %17 = zext i32 %16 to i64
  %18 = sub nsw i64 0, %17
  %19 = getelementptr inbounds %struct.nk_draw_command, ptr %13, i64 %18
  br label %20

20:                                               ; preds = %2, %5
  %.0 = phi ptr [ %19, %5 ], [ null, %2 ]
  ret ptr %.0
}